ccopy_reg
_reconstructor
p0
(cfmindex
FMCheckpointing
p1
c__builtin__
object
p2
Ntp3
Rp4
(dp5
S'C'
p6
(lp7
(dp8
a(dp9
S'A'
p10
I26
sg6
I9
sS'T'
p11
I10
sS'G'
p12
I5
sa(dp13
g10
I44
sg6
I17
sg11
I24
sg12
I15
sa(dp14
g10
I68
sg6
I22
sg11
I39
sg12
I21
sa(dp15
g10
I86
sg6
I30
sg11
I52
sg12
I32
sa(dp16
g10
I102
sg6
I38
sg11
I72
sg12
I38
sa(dp17
g10
I120
sg6
I46
sg11
I85
sg12
I49
sa(dp18
g10
I139
sg6
I59
sg11
I99
sg12
I53
sa(dp19
g10
I155
sg6
I73
sg11
I109
sg12
I63
sa(dp20
g10
I181
sg6
I85
sg11
I115
sg12
I69
sa(dp21
g10
I196
sg6
I98
sg11
I129
sg12
I77
sa(dp22
g10
I214
sg6
I108
sg11
I140
sg12
I88
sa(dp23
g10
I232
sg6
I117
sg11
I154
sg12
I97
sa(dp24
g10
I251
sg6
I126
sg11
I171
sg12
I102
sa(dp25
g10
I276
sg6
I132
sg11
I182
sg12
I110
sa(dp26
g10
I301
sg6
I137
sg11
I191
sg12
I121
sa(dp27
g10
I325
sg6
I143
sg11
I205
sg12
I127
sa(dp28
g10
I339
sg6
I156
sg11
I216
sg12
I139
sa(dp29
g10
I358
sg6
I166
sg11
I229
sg12
I147
sa(dp30
g10
I379
sg6
I172
sg11
I244
sg12
I155
sa(dp31
g10
I398
sg6
I184
sg11
I257
sg12
I161
sa(dp32
g10
I424
sg6
I189
sg11
I268
sg12
I169
sa(dp33
g10
I443
sg6
I204
sg11
I275
sg12
I178
sa(dp34
g10
I455
sg6
I217
sg11
I292
sg12
I186
sa(dp35
g10
I470
sg6
I224
sg11
I307
sg12
I199
sa(dp36
g10
I480
sg6
I247
sg11
I317
sg12
I206
sa(dp37
g10
I496
sg6
I255
sg11
I334
sg12
I215
sa(dp38
g10
I514
sg6
I264
sg11
I349
sg12
I223
sa(dp39
g10
I527
sg6
I283
sg11
I364
sg12
I226
sa(dp40
g10
I541
sg6
I297
sg11
I382
sg12
I230
sa(dp41
g10
I554
sg6
I307
sg11
I403
sg12
I236
sa(dp42
g10
I575
sg6
I313
sg11
I416
sg12
I246
sa(dp43
g10
I595
sg6
I318
sg11
I433
sg12
I254
sa(dp44
g10
I609
sg6
I334
sg11
I447
sg12
I260
sa(dp45
g10
I622
sg6
I345
sg11
I467
sg12
I266
sa(dp46
g10
I639
sg6
I357
sg11
I484
sg12
I270
sa(dp47
g10
I658
sg6
I368
sg11
I497
sg12
I277
sa(dp48
g10
I677
sg6
I378
sg11
I510
sg12
I285
sa(dp49
g10
I695
sg6
I388
sg11
I523
sg12
I294
sa(dp50
g10
I714
sg6
I397
sg11
I537
sg12
I302
sa(dp51
g10
I732
sg6
I409
sg11
I550
sg12
I309
sa(dp52
g10
I753
sg6
I418
sg11
I560
sg12
I319
sa(dp53
g10
I768
sg6
I432
sg11
I570
sg12
I330
sa(dp54
g10
I782
sg6
I442
sg11
I585
sg12
I341
sa(dp55
g10
I796
sg6
I454
sg11
I601
sg12
I349
sa(dp56
g10
I813
sg6
I463
sg11
I619
sg12
I355
sa(dp57
g10
I827
sg6
I476
sg11
I635
sg12
I362
sa(dp58
g10
I839
sg6
I489
sg11
I647
sg12
I375
sa(dp59
g10
I862
sg6
I500
sg11
I657
sg12
I381
sa(dp60
g10
I873
sg6
I512
sg11
I676
sg12
I389
sa(dp61
g10
I893
sg6
I519
sg11
I688
sg12
I400
sa(dp62
g10
I909
sg6
I522
sg11
I706
sg12
I413
sa(dp63
g10
I931
sg6
I534
sg11
I713
sg12
I422
sa(dp64
g10
I946
sg6
I551
sg11
I724
sg12
I429
sa(dp65
g10
I955
sg6
I566
sg11
I742
sg12
I437
sa(dp66
g10
I973
sg6
I574
sg11
I759
sg12
I444
sa(dp67
g10
I990
sg6
I587
sg11
I773
sg12
I450
sa(dp68
g10
I1009
sg6
I595
sg11
I783
sg12
I463
sa(dp69
g10
I1023
sg6
I606
sg11
I798
sg12
I473
sa(dp70
g10
I1039
sg6
I623
sg11
I810
sg12
I478
sa(dp71
g10
I1052
sg6
I634
sg11
I831
sg12
I483
sa(dp72
g10
I1067
sg6
I650
sg11
I846
sg12
I487
sa(dp73
g10
I1077
sg6
I665
sg11
I868
sg12
I490
sa(dp74
g10
I1088
sg6
I680
sg11
I885
sg12
I497
sa(dp75
g10
I1106
sg6
I694
sg11
I900
sg12
I500
sa(dp76
g10
I1122
sg6
I703
sg11
I919
sg12
I506
sa(dp77
g10
I1139
sg6
I714
sg11
I938
sg12
I509
sa(dp78
g10
I1151
sg6
I724
sg11
I960
sg12
I515
sa(dp79
g10
I1168
sg6
I736
sg11
I974
sg12
I522
sa(dp80
g10
I1180
sg6
I750
sg11
I991
sg12
I529
sa(dp81
g10
I1195
sg6
I764
sg11
I1003
sg12
I538
sa(dp82
g10
I1210
sg6
I784
sg11
I1011
sg12
I545
sa(dp83
g10
I1229
sg6
I798
sg11
I1019
sg12
I554
sa(dp84
g10
I1239
sg6
I811
sg11
I1036
sg12
I564
sa(dp85
g10
I1250
sg6
I824
sg11
I1049
sg12
I577
sa(dp86
g10
I1268
sg6
I832
sg11
I1062
sg12
I588
sa(dp87
g10
I1284
sg6
I841
sg11
I1077
sg12
I598
sa(dp88
g10
I1296
sg6
I855
sg11
I1094
sg12
I605
sa(dp89
g10
I1308
sg6
I871
sg11
I1109
sg12
I612
sa(dp90
g10
I1323
sg6
I885
sg11
I1125
sg12
I617
sa(dp91
g10
I1334
sg6
I895
sg11
I1148
sg12
I623
sa(dp92
g10
I1353
sg6
I904
sg11
I1163
sg12
I630
sa(dp93
g10
I1372
sS'\x00'
p94
I1
sg6
I913
sg11
I1180
sg12
I634
sa(dp95
g10
I1388
sg94
I1
sg6
I926
sg11
I1193
sg12
I642
sa(dp96
g10
I1411
sg94
I1
sg6
I935
sg11
I1206
sg12
I647
sa(dp97
g10
I1431
sg94
I1
sg6
I942
sg11
I1220
sg12
I656
sa(dp98
g10
I1459
sg94
I1
sg6
I947
sg11
I1228
sg12
I665
sa(dp99
g10
I1480
sg94
I1
sg6
I956
sg11
I1241
sg12
I672
sa(dp100
g10
I1492
sg94
I1
sg6
I973
sg11
I1253
sg12
I681
sa(dp101
g10
I1510
sg94
I1
sg6
I987
sg11
I1264
sg12
I688
sa(dp102
g10
I1528
sg94
I1
sg6
I997
sg11
I1277
sg12
I697
sa(dp103
g10
I1542
sg94
I1
sg6
I1012
sg11
I1288
sg12
I707
sa(dp104
g10
I1559
sg94
I1
sg6
I1020
sg11
I1301
sg12
I719
sa(dp105
g10
I1576
sg94
I1
sg6
I1024
sg11
I1317
sg12
I732
sa(dp106
g10
I1595
sg94
I1
sg6
I1036
sg11
I1331
sg12
I737
sa(dp107
g10
I1606
sg94
I1
sg6
I1051
sg11
I1344
sg12
I748
sa(dp108
g10
I1617
sg94
I1
sg6
I1061
sg11
I1364
sg12
I757
sa(dp109
g10
I1631
sg94
I1
sg6
I1065
sg11
I1389
sg12
I764
sa(dp110
g10
I1644
sg94
I1
sg6
I1081
sg11
I1404
sg12
I770
sa(dp111
g10
I1657
sg94
I1
sg6
I1089
sg11
I1425
sg12
I778
sa(dp112
g10
I1675
sg94
I1
sg6
I1096
sg11
I1442
sg12
I786
sa(dp113
g10
I1694
sg94
I1
sg6
I1108
sg11
I1456
sg12
I791
sa(dp114
g10
I1715
sg94
I1
sg6
I1116
sg11
I1471
sg12
I797
sa(dp115
g10
I1727
sg94
I1
sg6
I1124
sg11
I1487
sg12
I811
sa(dp116
g10
I1740
sg94
I1
sg6
I1131
sg11
I1505
sg12
I823
sa(dp117
g10
I1753
sg94
I1
sg6
I1138
sg11
I1520
sg12
I838
sa(dp118
g10
I1764
sg94
I1
sg6
I1144
sg11
I1544
sg12
I847
sa(dp119
g10
I1781
sg94
I1
sg6
I1153
sg11
I1563
sg12
I852
sa(dp120
g10
I1798
sg94
I1
sg6
I1159
sg11
I1579
sg12
I863
sa(dp121
g10
I1819
sg94
I1
sg6
I1167
sg11
I1595
sg12
I868
sa(dp122
g10
I1839
sg94
I1
sg6
I1178
sg11
I1611
sg12
I871
sa(dp123
g10
I1850
sg94
I1
sg6
I1188
sg11
I1629
sg12
I882
sa(dp124
g10
I1863
sg94
I1
sg6
I1197
sg11
I1651
sg12
I888
sa(dp125
g10
I1874
sg94
I1
sg6
I1202
sg11
I1671
sg12
I902
sa(dp126
g10
I1893
sg94
I1
sg6
I1204
sg11
I1688
sg12
I914
sa(dp127
g10
I1904
sg94
I1
sg6
I1215
sg11
I1707
sg12
I923
sa(dp128
g10
I1918
sg94
I1
sg6
I1220
sg11
I1729
sg12
I932
sa(dp129
g10
I1935
sg94
I1
sg6
I1225
sg11
I1748
sg12
I941
sa(dp130
g10
I1949
sg94
I1
sg6
I1233
sg11
I1768
sg12
I949
sa(dp131
g10
I1964
sg94
I1
sg6
I1241
sg11
I1784
sg12
I960
sa(dp132
g10
I1979
sg94
I1
sg6
I1245
sg11
I1805
sg12
I970
sa(dp133
g10
I1996
sg94
I1
sg6
I1251
sg11
I1821
sg12
I981
sa(dp134
g10
I2011
sg94
I1
sg6
I1258
sg11
I1837
sg12
I993
sa(dp135
g10
I2028
sg94
I1
sg6
I1267
sg11
I1850
sg12
I1004
sa(dp136
g10
I2043
sg94
I1
sg6
I1272
sg11
I1871
sg12
I1013
sa(dp137
g10
I2052
sg94
I1
sg6
I1283
sg11
I1893
sg12
I1021
sa(dp138
g10
I2067
sg94
I1
sg6
I1293
sg11
I1912
sg12
I1027
sa(dp139
g10
I2090
sg94
I1
sg6
I1301
sg11
I1928
sg12
I1030
sa(dp140
g10
I2106
sg94
I1
sg6
I1309
sg11
I1948
sg12
I1036
sa(dp141
g10
I2117
sg94
I1
sg6
I1318
sg11
I1968
sg12
I1046
sa(dp142
g10
I2136
sg94
I1
sg6
I1322
sg11
I1983
sg12
I1058
sa(dp143
g10
I2155
sg94
I1
sg6
I1334
sg11
I1993
sg12
I1067
sa(dp144
g10
I2173
sg94
I1
sg6
I1341
sg11
I2008
sg12
I1077
sa(dp145
g10
I2186
sg94
I1
sg6
I1351
sg11
I2028
sg12
I1084
sa(dp146
g10
I2197
sg94
I1
sg6
I1364
sg11
I2045
sg12
I1093
sa(dp147
g10
I2208
sg94
I1
sg6
I1370
sg11
I2067
sg12
I1104
sa(dp148
g10
I2220
sg94
I1
sg6
I1376
sg11
I2086
sg12
I1117
sa(dp149
g10
I2236
sg94
I1
sg6
I1386
sg11
I2104
sg12
I1123
sa(dp150
g10
I2253
sg94
I1
sg6
I1396
sg11
I2120
sg12
I1130
sa(dp151
g10
I2262
sg94
I1
sg6
I1402
sg11
I2140
sg12
I1145
sa(dp152
g10
I2280
sg94
I1
sg6
I1410
sg11
I2156
sg12
I1153
sa(dp153
g10
I2297
sg94
I1
sg6
I1417
sg11
I2166
sg12
I1169
sa(dp154
g10
I2315
sg94
I1
sg6
I1424
sg11
I2178
sg12
I1182
sa(dp155
g10
I2332
sg94
I1
sg6
I1436
sg11
I2190
sg12
I1191
sa(dp156
g10
I2353
sg94
I1
sg6
I1444
sg11
I2202
sg12
I1200
sa(dp157
g10
I2371
sg94
I1
sg6
I1449
sg11
I2223
sg12
I1206
sa(dp158
g10
I2384
sg94
I1
sg6
I1458
sg11
I2237
sg12
I1220
sa(dp159
g10
I2405
sg94
I1
sg6
I1464
sg11
I2253
sg12
I1227
sa(dp160
g10
I2423
sg94
I1
sg6
I1469
sg11
I2273
sg12
I1234
sa(dp161
g10
I2440
sg94
I1
sg6
I1481
sg11
I2291
sg12
I1237
sa(dp162
g10
I2456
sg94
I1
sg6
I1487
sg11
I2311
sg12
I1245
sa(dp163
g10
I2472
sg94
I1
sg6
I1494
sg11
I2322
sg12
I1261
sa(dp164
g10
I2487
sg94
I1
sg6
I1498
sg11
I2339
sg12
I1275
sa(dp165
g10
I2508
sg94
I1
sg6
I1504
sg11
I2348
sg12
I1289
sa(dp166
g10
I2525
sg94
I1
sg6
I1511
sg11
I2368
sg12
I1295
sa(dp167
g10
I2543
sg94
I1
sg6
I1518
sg11
I2385
sg12
I1303
sa(dp168
g10
I2556
sg94
I1
sg6
I1525
sg11
I2403
sg12
I1315
sa(dp169
g10
I2577
sg94
I1
sg6
I1526
sg11
I2420
sg12
I1326
sa(dp170
g10
I2598
sg94
I1
sg6
I1531
sg11
I2438
sg12
I1332
sa(dp171
g10
I2615
sg94
I1
sg6
I1541
sg11
I2455
sg12
I1338
sa(dp172
g10
I2628
sg94
I1
sg6
I1548
sg11
I2476
sg12
I1347
sa(dp173
g10
I2641
sg94
I1
sg6
I1560
sg11
I2494
sg12
I1354
sa(dp174
g10
I2654
sg94
I1
sg6
I1569
sg11
I2519
sg12
I1357
sa(dp175
g10
I2670
sg94
I1
sg6
I1579
sg11
I2538
sg12
I1362
sa(dp176
g10
I2685
sg94
I1
sg6
I1588
sg11
I2559
sg12
I1367
sa(dp177
g10
I2702
sg94
I1
sg6
I1597
sg11
I2579
sg12
I1371
sa(dp178
g10
I2721
sg94
I1
sg6
I1604
sg11
I2596
sg12
I1378
sa(dp179
g10
I2735
sg94
I1
sg6
I1615
sg11
I2616
sg12
I1383
sa(dp180
g10
I2751
sg94
I1
sg6
I1629
sg11
I2627
sg12
I1392
sa(dp181
g10
I2767
sg94
I1
sg6
I1634
sg11
I2646
sg12
I1402
sa(dp182
g10
I2779
sg94
I1
sg6
I1644
sg11
I2670
sg12
I1406
sa(dp183
g10
I2797
sg94
I1
sg6
I1654
sg11
I2686
sg12
I1412
sa(dp184
g10
I2809
sg94
I1
sg6
I1662
sg11
I2710
sg12
I1418
sa(dp185
g10
I2828
sg94
I1
sg6
I1669
sg11
I2726
sg12
I1426
sa(dp186
g10
I2842
sg94
I1
sg6
I1676
sg11
I2748
sg12
I1433
sa(dp187
g10
I2858
sg94
I1
sg6
I1687
sg11
I2764
sg12
I1440
sa(dp188
g10
I2874
sg94
I1
sg6
I1696
sg11
I2782
sg12
I1447
sa(dp189
g10
I2894
sg94
I1
sg6
I1704
sg11
I2796
sg12
I1455
sa(dp190
g10
I2910
sg94
I1
sg6
I1718
sg11
I2810
sg12
I1461
sa(dp191
g10
I2922
sg94
I1
sg6
I1724
sg11
I2831
sg12
I1472
sa(dp192
g10
I2936
sg94
I1
sg6
I1729
sg11
I2856
sg12
I1478
sa(dp193
g10
I2946
sg94
I1
sg6
I1739
sg11
I2879
sg12
I1485
sa(dp194
g10
I2962
sg94
I1
sg6
I1749
sg11
I2900
sg12
I1488
sa(dp195
g10
I2974
sg94
I1
sg6
I1764
sg11
I2921
sg12
I1490
sa(dp196
g10
I2986
sg94
I1
sg6
I1775
sg11
I2939
sg12
I1499
sa(dp197
g10
I3000
sg94
I1
sg6
I1785
sg11
I2954
sg12
I1510
sa(dp198
g10
I3012
sg94
I1
sg6
I1797
sg11
I2973
sg12
I1517
sa(dp199
g10
I3021
sg94
I1
sg6
I1803
sg11
I2998
sg12
I1527
sa(dp200
g10
I3037
sg94
I1
sg6
I1810
sg11
I3019
sg12
I1533
sa(dp201
g10
I3046
sg94
I1
sg6
I1820
sg11
I3043
sg12
I1540
sa(dp202
g10
I3057
sg94
I1
sg6
I1831
sg11
I3064
sg12
I1547
sa(dp203
g10
I3065
sg94
I1
sg6
I1843
sg11
I3088
sg12
I1553
sa(dp204
g10
I3080
sg94
I1
sg6
I1853
sg11
I3105
sg12
I1561
sa(dp205
g10
I3093
sg94
I1
sg6
I1860
sg11
I3127
sg12
I1569
sa(dp206
g10
I3107
sg94
I1
sg6
I1870
sg11
I3145
sg12
I1577
sa(dp207
g10
I3120
sg94
I1
sg6
I1879
sg11
I3165
sg12
I1585
sa(dp208
g10
I3133
sg94
I1
sg6
I1888
sg11
I3183
sg12
I1595
sa(dp209
g10
I3151
sg94
I1
sg6
I1901
sg11
I3194
sg12
I1603
sa(dp210
g10
I3162
sg94
I1
sg6
I1917
sg11
I3212
sg12
I1608
sa(dp211
g10
I3179
sg94
I1
sg6
I1928
sg11
I3228
sg12
I1614
sa(dp212
g10
I3196
sg94
I1
sg6
I1933
sg11
I3248
sg12
I1622
sa(dp213
g10
I3210
sg94
I1
sg6
I1946
sg11
I3267
sg12
I1626
sa(dp214
g10
I3227
sg94
I1
sg6
I1957
sg11
I3281
sg12
I1634
sa(dp215
g10
I3237
sg94
I1
sg6
I1965
sg11
I3303
sg12
I1644
sa(dp216
g10
I3250
sg94
I1
sg6
I1975
sg11
I3323
sg12
I1651
sa(dp217
g10
I3270
sg94
I1
sg6
I1983
sg11
I3339
sg12
I1657
sa(dp218
g10
I3282
sg94
I1
sg6
I1993
sg11
I3359
sg12
I1665
sa(dp219
g10
I3298
sg94
I1
sg6
I2002
sg11
I3378
sg12
I1671
sa(dp220
g10
I3305
sg94
I1
sg6
I2010
sg11
I3409
sg12
I1675
sasS'step'
p221
I50
sS'data'
p222
S'GCAAAAAAAAATATACACAAAAATTCAAACATCCGTTATAGGAATAGTCCGCGCTCTAGATATGATTCGAGAACCATAAAGACTTTCTTATAGATGAAAGGTAAAAAAAATCAATGTCTAATTATGTTAACATAATTAAGGAGAACTACTCAAATAGTAAACTGGCTTAAAGTTAGAATGTCCCGCTACAGTTGATAGGAACCCTTTCTATTGAAATAGTTATTGGCAATGTATACATAACTGTATTATCTGCTACCCTAGAAATTTGACAAGTGTGCTATAATAAGTAAGAGCTCGGAAAGACGCACATCCATACGCTATGAAAATCCTTATCATTCTAATCCTAATAACCGCCTTGTCTCCAACACACCGCTTAACGCGAATAAGAAATGGTAAGGTATCTGTACCCCTAACCAACAAGCAACAAAAAGAAATGCATCAAAAAGAAAGGCTCACTATGTGACCCTAAGTTTGGGTCTACATTATACATAACACACAGCGCCACAAGTAGACGGAAGTCGTATCACTGAAGCACATAGATATAATTCTGACAAACCGAAGTTACGTGCATATTAAAGAGAACCTATGCTGATTGTCATTAGCACATTTAGCATTTTTTACACGTGACATTAAACTACTAATGCTAAAATTGAATTAAGTATAGAACATAAGTGGAAATACATAACGAAACATACATCGATAGCGTGAAAAAAGGGAATACAAAGATCAGCGTACTAATATAGGAAAAATAAAATAATTCCAAACGACTTATAATATAACATGCAAGAATAGTGTATGTATTCAAGTACAAATTCCGGGATTGCGGACGGTAAGATACTCTGCACCCGACAACATCAAATTAGCTGCCCATGATGAAGGTACTCTAAACCGATTAATTAGCAAGCTAGAGTTCTCTTTTAAAAACAATTAGAGATATGAACAAGTGATTACAACAAATTATACGGATGACTCCAGTTCCAAATCCATCTCAAGAGTATTAGTAAGCAAATTACAAAGAAAAAAAACTACCTGATTAAGAGGAATGTTTAATCCCCCTCACACATCAAAAGCCCGGAAGCCGAAGTATATAGAAAGGTACATATATTCTTCTCCCCCATTCGCATATAGTCTATGAAGCTAGTTCGGCAAGTCTCTGGGGATGATAGTTATGAAGATAGTTTAGGATCCATCGACAATAGCTGCGCCACCCCCATTCCCCCCCGGCTGCCCAACCCAAGAATATTTACTTGACATTAAGCTTTTGATTATGTGAATACCACATGACGTAAGTGATTTACCGTCGCTATTTACCTGAATGAAATTTGACTAATGTCTGACGGACTAAAAAACTAGACATCACATTGTCCCCCCCTATTTTTTACCTTACAAACAACCCCTCGTCTTCACTTGCATCAACCCCCTCAAATTTTAGAAAAACATTTTTCTTGCGTATTTGGACATCTATTTCCACTTAGCTTCCTAAAATGGATTTTAACGCTTATGAAAAATCGTGATTACCAATATTATCAATTGTAATGGGAACAGGCAAGAAGATCACGTTTAAATTTAAACATTGTATGAATAGCTATGGTATAAATGCCTAAACCCCCTCCCTTAAATACGGCTGATGTTCTCTGATTAGCCCAAATATCTATGATATCGCACTTTAAATAGCCATAACTCGGTGTTCTCTTTATATCTTTTTGAAATTCAATTAACCAACCAGTAAATCTAATGTCCACGCCATTTCTAACAATTATATCTCACTACTTATGCACCAACAGTGAACGGAAAATCGGTACACAGCGAATTCGCATATTAATATTTACATATGCTCAAGGGACGCTAAAATAACGGCATAAAGCTTTAAACAATGGTGATTGTCGTTCACCCTACGAAAATCTTAATCGCGTGTCGCATCCAGATATTTACAGAGAATCAATGAAAATATATTTCAAACTGTAGGACGGAATACATTAAGTACACTCCACCAACCTTAGGTAGAACATCGTACCAAGAAATCGGGTGTTTCAAACGAAATGAACTACAAATCGGGAATGACACAGTAACCGATTGATCAACCCTACACTTGGTGCGACCAAGCTGTATTCTGACATAACATTCTCTTGGCGAAGCTTTGGAGCAAGCATAGACGATTGTCGATACACTATTTCAGCTTCCGGCCATTTAAACATAGTTCCTTCCTCAAATGACTATGGTTTAACAGACTGATGATTTTTAACAACAATTTAATTCGCCGCTGCAAATTTGATAACTCATTTAGCTTATCACCCGGCAATTCACTTCAGCAGGTACCCGGATCAGGATTGCATCGGTTCAGCGGTCATAAGAACCATAAAATATTCCATACGTCAGCAAAACATGCTTCAAAAAGTGCAACTTACTCTATTTTAAAGACGGCAGCCTTTACCCTATCGGATTGTCGTTATATGTTAGAGATATAGGCAATAAGACTAGTACACTTGAAGATCACGGTACAGGGAATTAAATAGGCAGTTTCTGATTGTGATGTCAATAGATGATTATTGACTCACGGAATGTAAAACTGCCAGTAAGACCAAAGCATACAAAAGCACGTAAGATCGAGTGGCGATTCTCGCACCACACTTACTACTAATCTCCACACAACGCATCCATCCCTACCGGACTATTTAACTTCTTTCTTGTACCTGGGGTACTTAGATTCTTAGATAACGACATGCGCATATCAAAGAATGTTTCTATTATACACCTCCCTAGTTTGATCACCTTTAAGAACATACACATGAATTACGCAAGTTTGAGGGACAGCACCGCGACACTGAATAAAGGGAATTATTCATAAGATAGACATAGATTAATTCGTTTACTCACAGTTCCCAGTGGGGCAACATGTCGATCCTCATGCACCTGACTCCGACAATCAATAATATGCTACAACACTTACTGCCTTATAGAACCTTTTTTCGGCAGAAACTTTTTCACAATTATCATCTCGTTACCTCCAATCCACCACTCAGTAAAATATACCTCGCATTACATGTTTGTCTCTTAATTTCCGTCAGTCCCCACTCCTCAATTATTTCTTTATTCGTCAATTTACCTGAAATAAGGGCTCGCCCCTTTCATATATCATTTGTCCTGATTCCCTTAACTTCTCAACCTAATGTCTAAATACGCCTCAAAACTCCATGTACAATATCCTTTGATTATACAGACTTTCCTTTGATACAAATAACGTAAGCTTGATTTTATCAAGATTCTAATACCTAAATATATCCACCCTATAACCTTGATTTGTTAAATCCTCATCTTGAATAATCCTTATGATAGCCCTCTGGTTTTTTAGTTTAAGTGAACAATCTAAGTCAATTCACAGCATCTGTCCTCAAGCATATGCGCTTTATTCGTTCCGCCATCTCTACGATCTGAAATTCTAAAACCTTCGGATACACACCTAGGATGTTGAAGAATGTTTCCCTCTAAAGAACCAGCTCCCGCCCAGCCGGACTTTCTTACGTAACGTGAAAGTCAACCCACACAACCCCACCGACAACAACTGTACTTTGCGGTCAAAAACCCAGTGCGACCCAAGTAAAATGTCGTATACTTCTATGCTGAGGATCATGTCACATAGCTCCCATTCGCGTTACAACTCGCTTTCTTCAGAACTCGGAGGATGAGAGCTTGGCTATCCCGGTTTGGCCAGGGCCTTATGATATATAAAAAGTGGAGAAATCGCTAAACCATGGAGAATAGTCTAGCCTATCTAGAGAGATATAATTACTTGTCGTTCAACCTTTTAGTCTCCCTCTATCCCGTCAACCGCACTATGGACAATATTGTAAGTTATCGTATGTAACTCACACCCCATGCTTTCCGTCACTCTGGTAAAAGCCTCTGAATCTCTTACGATCCATTTTAATACGGCTACTACCACTCCTTAAGAATTATTTCTGCTACTCTGTTCTATTAGTTTAAATATGACAGGTCCCTTTACAACCATAAACTTCCCAATTATGATGAATATTAGCTCAATATGTACTGGGAAAAGCAAATCTTATTCAGTCTAAGCTTTACCCACTAA\x00TAATGTTATTAACCATTACTGTGCAAATCGGTTCAAGCCTTACCCAACTTAATAATCGAGGAATCGAGAAACCATACAAATTAATCTGTAAGTATACAATGAATCTTCCAAAGTAAACATGTGTACTACAAATAAGAAATCCTAAGATGGTTATCGTGTAACAATTAGAAAGACGAGAAAAACTAAGATTAAGAAAAAAGGTAACAATCCTGGTCCAAGTTTATTTATGTATAGTGTCCAACAACGAAAAAAAGCACACTAATTTGCTAACAACCCAACTAGAATCGCTTTCATCAGCGACTCCGCCCGTGGACAACAACGAACAGCCACTCCTAGGAAATTACTCAATTGCTCAGGTATCTCATACTTCTAACTAAACTTAAGAATCTCAAGGACGTAGTGAGGTATCACGGGTCAACTCCACCAGCGTTATCAAGTGTGCCTCCACATGCACAGATGTAAATAACTAGAGACGTCTGAGGATACCTCATATGCAGTTAAGCTAGAATGTGAGTAATAGGGATTAGAATCGGCAGGATGTTTGAAATATTTGATATCACGTCCTTGTTCTAGTTTACGCACCCATAATATGAAAAAATCTAAATCAACACGACTAAGCGAGTTCTATCACGACTCTCACACCTTGGCCCATGAGTGGTTCGTGATCATTCGCGTTTTTGTAACCCTATGATGCCATCGTTTGATACATGATCATTATTTTTTATTAATTTAGTAACTAGACTTGAAGTGATCTGATTGTTTGTGTCATAAATTCGTCCAAATACCCTACGGCTTTGACCCTCTACACTCATAACGGACAATTCTTATACTCGGCGTTTTCTGTTATAACTGATTGTATATTTAAGTTAATGCACATTCACATGGGTTTCTAGGTACAATACAGTTTAAATAACCTAACTATAAGATGTTAGACTCACGCAATGTTTCAATACTACAACACTAAAAAAATTGATATGCCCATCTATAGTTTCACTATGTTACTAGAAACAAGCGGTAGGTTCAATGAGTCGTTGTACGACTTCGAGTGTGGATCCAATTATATGCGGTATTTTAACCTTGTATAGGCCGTATAAGTTAAAGTAGGCTCTATGGACGTAGAATTTAGTGTGAGTCTGTCGCTCTGTATAGCGAGCATGATAAGGGTGTCATATGGTTTGTTATGTCTATAATTAACTATTTTCTACGTCTGTAAATTAACTCGATTCATCAATTCACCAACGTTGCTTAATAAATTTTGATTGTTCCATGTTATGTGCGTTTACTGAAGAATTACAAGTTAAAGCAAGGAGATCTCTTAATAATGAATTAAACCTAATTATGACTACACAACGAATATTATGGAATAAATAACGGCTATCTACTCTCAAATTAGATCACTTTCAAAATACTCTGAAGCTCCACATAGTTATCTATCTTTTAGTAGGTAGACTTCTGTTGGGCCTCACTAACTTCCGTAACATGTGAGTACTTATTCTAGTTGACTTTTTTATAGTATGTAACTGTTGGCCGATTATGTGTTTTAGTGGAATGTGCGATTTAACTGTTGAAGAGGAAATGTAATGATGAATATTAATAAGGGTGATTTTTACACCACACGTGGGTGTACTAATTGCCACTTTTGTAACGTTCAATTCTATTTCGATATTACTAGGTTTATATTCATTTTGTTGACTCTGGAAAGCAGTAGATTTTTACTAGCTATTAGAGTACCTAATGGTGTCTTATATGGATTGAATATAAATCTTTTAGTCAACTCTAGTACGAGATTTTCAGTAATTCGAGCTTTTGAAATCGAGCATGTAAAAAAGGGCATCAAATTTAACAGCTTGTGTCTTTCGTGTCAATTATAGTAACATGAGTCGATGTGATTGTTGTAATCAAGTTTTTGATTTTTTATAATGAGACTATATAGTGCGTTGGGCAATAAAGTATGACTACCGAAGTTTAGGCATGCCGGCATGAGAATTATTAGTAACTTGGTTAAAATTGCCTTGTTAGTAAATTCAGAAACCACTGTAGAGAACTTCCCGGGCAAGTAATGCATAAATGTTTTGTTGCGTAACAATATTGAATGGTATGAAGTCATTTTCTCGCAAATTTTTAAGGCTGTGTCTTGTGTTTCTCTATCGTTAACTCCACTTCAGTGCGATTATCGATTTGCAAACTTAATATCATTTACACTTTTAGCCATACGCACTTTCTTACCCCAATTATAAAAATAATTAATAATGTAATTAAAAGATTTAAGCTACGTTCCATATAAATAGCACTTTAGAACTAGTTTCTTTGTACCCGTTACATTACGTTGAATCTTGAGTGTTTTGACTACTCTAAGTTGGATTATTGATAATGATAGAATTATAAGGGTCTACGATAAGAGCTAATCTGGAGCACATTCTAAAGAACTGGAAGAGCACCTATACTATACCGCTCAAGAGGATGCTGAAACAAATCACTTGAGATATATGAAAAGTGCGAGTTTGATTCACTTAATTTTCTCATTTGGCGTAAACTAAGTAGGCTTCTCATACTCTATTACGTTCTGCTGATACTCATCAGGGCCTATTCATACCGTGCTTCTCGAATTAATGGTGGTATTTGTTGAAGATGCTGTTTCACATGATTGCAACTTATATTTTCGTCCTTCGCATGGTGTGTACATTTTAGATATAGAGTTGTGAGATAAGTCGTTAACTTTGTGATAGCTAATACCAATAGCCACTTATTTGTTATCCACTAAGGGTCCTAAAACGTTTTGCAAAAATTCCTATAACTCTTCATGGTATACGAACGGGGATGTTGTCTATTCAGACTAGCTAAGATTTTGTCTTTGTGTGAGTGATAGAGTAAGATAATTACTGGCTTACTTACGACTTTAGCTAAGAAACTCTAGGAAGAGAAGTTAACATCGTGCATTGGTGATATACAGGTAGCAGACGGCAGGTCTTGGTAAGCTTAAACCGAAAATGGCAAATAGTAAGTTCTAGGGCACACATATGTCACTACCGATAACAAGTCACCTTTAATAACTGAGGGAGTGCCAAAAGATAAACTATACGGAGTAGAAGCGTAATGCAGTTTAACATACTCTATTTAAAGTATAAATGTGGTTTCAAAATATCTTCTGTTACAATTTTACGACATAGGCTGTTAGACGACGAGATCGTTAGTTCGAGTTGACGGATTACCATTTTAATTGGAAACAACTTCTAACATAAGAACTAGATGTGAAGTTAAATCTACAATCAGGTCACTTTACTTTTTTTTAGTAAGATATAAGATAAATTTGGAACCCTATGAAGATACTTTTTTAAGAATTACCTTACACTCTCTCACAAATTATTTTTAGTAAAGGGACCTATTGTATCGACTCAGATTAATTATGATATTCTGTCACACGACTGAGAGTAGCCTGTGGGGTATGAAATGGTAAAAACAGGTTTAAGTTCGAATAGAATTGATGATGCTGTTGTAAGTGGGCTGCATATGAAAGCATTGGGGGAGTACGCAGTAAAGTAATGGACTCGAAAAACAATGAATAATTACTCTCAGAGAGAAAATTTACTTTAAATTGGATTTATTTTCCCTGAATACATCGAACTCGAATACTTTATTTGGTGTCAATATTGATCAAAAGTGAAATTGGTAGCATGTGCATTAGACGTTTGTAATGCGGTACCCATTGTAAATTAGGTTGTTTTTAATAAGAGGAAATAAAAATATGTTGATGTGATAACAGTAAATCAAAGAATGTGTAATTTAAGAACATATATTACTTGCTGATTATACTAATTACTAATACGCGAAATATATACTTTCTCGTAATGGAATTTCAGCCCATATTACAGACAATAATTCTGAATTGGTTCGTTTTTGATCACGCGATTTTGTTATGCTGTCCTCCTGTAGTTAAGTTACTACGTCAAATACTACGTACATCTATTATTTAATCTTAAAATGAGCTATCCATTCTATCTTTATTTTCTCTGTCTATCTTATCCAAAACAACACATTGTTCGACTGTGATTTTCTAAGACTATTCGATAAATTTACCATATGTTATACTGCTAGATATTTTCATTAACTCGTCTGGCAATTCGGACTTTAATTCATAATTTTATCAACATATTTAACTATACTCGAGTATTACATATATAGGGTGTTAAAACACACAGAACTATCCTTATTTTAGATTCATCGTTCATACTTCGTCAATTATCACTAAGATCTTTATTACTGACTTCTGGTATCCACGGTCACACTCCAGGTATACAACGCGAAACAAAGCATTTGGCTAAGAGATTCGATAATTTTAATTCCAAATTTAGGACATGGGTTTTATCTTTTCTTATCATTATTCAAGGTTTTTGAAACCTTATCCCGATTTACATTACCACCCAAGCAAAACTGTATTTATCTATCCAAAGGTAAGTAATTTTTGCGTAGTTATTATATGTTCTATAGCCTAGTTTTTGTCCTTAATCAATACTTTTGAATGGGGCAATTTGATTAAATGATTCATCCAAAATTATCCACAAGATATAATGTTATATCCAATTAGTCTGATCTTACTGACATCTTTGATGATTGTGCAGCCTGATTTAAGCTTACATTTACACACTTACTGGTACACTGATAATATAACTTTGATTAAGTATCTATACATATCTAGCAGACCTGCTCTTAAGTGAATGCTCACTAAATAAAAATGTATCTGTAATGTCCAGAGATACCTTGGAAAATATTCATCTTTTATACCGAACGACTACTGGCCTTGACAACCTCCAAGAACATTGTTTATCTGCATGAGTCGATCATAGAGTGTAGATATGCATTTGTTTCAAGTTTAATGTCTATTATTCTCTTTTTTTGTCGAAGGTATAAATTTAATCTTTTATATTATTAGCGCTTTGAAAATCGTACGTCCTTGTTATCTTCTCGTTACTTTCAATACCCTCTTAAAGTTCATATGATGATCATCTCTTTAAAATTATATTATCTACCCTCGCCTTTTACATTTACTTCTCATCCCTTATAGCAATGCAGGGTTTACAAGACTCATTTTCTACCTTCTGAAGTGATTTCGCAACTTAATGAAAGCGTTTTTACTCGGGACCCTGCATTACTGTAGAAGCCGTATACACCGCAGCAGCATATGTATGTTTCTTTTAGATCCATCTTTAGCTTAATCATTAATTTATCTTGCGTAGTGACTATTCTTGTCGTCGGTTTGTGTTAATTTTTTTTATTATAGCAATAAAACGTATCAGTATGCTTTAGAGTATCACTCTTGGTCTTAGTGAATCTCCTACTTTGGTTTTCATATTATACCAGTCTTTTCATGATTTATTCTAACCTTGTGGTACCGGCATTTCTCGTTCATACATATTCATTTATTGGCCTTTTGACCTCTATCCGTTTATCCTTTCACACTATTGTGTTAACAATTCTCAGCTAGGTCCGTTTTTCGAACAGAATGAATATTTTGACCATTGTTTCGTACTATTAAAAATGATGTGCATACATCTTTCATGCTGGTTTTTAATGCGTACCTCTTTATTCCTAGCTTGTACTCAAGATCGGAAGATATACTGAAAATTTTTTGCCCTAAATATCAGAATGCGCTTCATAGTTTTTGGTCAGAAATGAGGATTAGTTTTCCAATGTGCTGTCGACTATCCTAATTTGTCCCCCATACAGGAGCTCAAGGCCAAAAGTGACTCTTATAACTTTATCCAAGATCTTTGCAAATTGATATTCCATCAACTACTCGTTCACTTCGCCATCCTGCATAGGTGCCTAATAAACCTTTCCATCATAAAAGCCGTGACATTACATTTTATTAATCCTTTTGCTGAGCTATATATGTTTGTAGCATGTTAATAAAAAGACCAATCTTACTACCACATGATTATCCCATTAGTTTTAGTCGCATCATATTCAGTCATCTAAGACGATAGTTTATTTGAAACATCTTCAGCATAGCCGCAATTAAATTCGATTATGTCGCATTTTGTCATTGTCCGCGTTAATATGGCTTGTTTACAATCCTTCTGGATATTATTCAGTGGCCTTCAAATGCCTTGATAATTGTGATTAACTAGCATCAAAAATAGAGAAATTAAACCTTCTCGTACTTTATTCCGATTAATTCGGACGTTTCTTTGATCGTACTCTGATAGTCAATTACAGATATCGCCTCTTAAGACGTAGCTATCAATTTTCGTATTTCTATAATAAACATCTTTTTTTCCTTTTGTTTTTTGTAGCGTATTCTAATCTATTTCATTTA'
p223
sS'occ'
p224
(dp225
g10
I1
sg94
I0
sg6
I3307
sg11
I6992
sg12
I5317
ssS'offset'
p226
(dp227
sb.